target datalayout = "e-m:e-p270:32:32-p271:32:32-p272:64:64-i64:64-i128:128-f80:128-n8:16:32:64-S128"
target triple = "x86_64-pc-linux-gnu"

%"class.nanogui::Texture" = type { %"class.nanogui::Object.base", i8, i8, i8, i8, i8, i8, i8, %"struct.nanogui::Array", i8, i32, i32 }
%"class.nanogui::Object.base" = type <{ ptr, %"struct.std::atomic" }>
%"struct.std::atomic" = type { %"struct.std::__atomic_base" }
%"struct.std::__atomic_base" = type { i32 }
%"struct.nanogui::Array" = type { [2 x i32] }
%"class.nanogui::Object" = type <{ ptr, %"struct.std::atomic", [4 x i8] }>

@_ZTVN7nanogui7TextureE = external unnamed_addr constant { [4 x ptr] }, align 8
@_ZTVN7nanogui6ObjectE = external unnamed_addr constant { [4 x ptr] }, align 8

; Function Attrs: mustprogress nounwind uwtable
define linkonce_odr dso_local void @_ZNSt13__atomic_baseIiEC2Ei(ptr noundef nonnull align 4 dereferenceable(4) %0, i32 noundef %1) unnamed_addr #1 comdat align 2 {
  %3 = alloca ptr, align 8
  %4 = alloca i32, align 4
  store ptr %0, ptr %3, align 8
  store i32 %1, ptr %4, align 4
  %5 = load ptr, ptr %3, align 8
  %6 = getelementptr inbounds %"struct.std::__atomic_base", ptr %5, i32 0, i32 0
  %7 = load i32, ptr %4, align 4
  store i32 %7, ptr %6, align 4
  ret void
}

; Function Attrs: mustprogress nounwind uwtable
define linkonce_odr dso_local void @_ZNSt6atomicIiEC2Ei(ptr noundef nonnull align 4 dereferenceable(4) %0, i32 noundef %1) unnamed_addr #1 comdat align 2 {
  %3 = alloca ptr, align 8
  %4 = alloca i32, align 4
  store ptr %0, ptr %3, align 8
  store i32 %1, ptr %4, align 4
  %5 = load ptr, ptr %3, align 8
  %6 = load i32, ptr %4, align 4
  call void @_ZNSt13__atomic_baseIiEC2Ei(ptr noundef nonnull align 4 dereferenceable(4) %5, i32 noundef %6) #6
  ret void
}

; Function Attrs: mustprogress nounwind uwtable
define linkonce_odr hidden void @_ZN7nanogui6ObjectC2Ev(ptr noundef nonnull align 8 dereferenceable(12) %0) unnamed_addr #1 comdat align 2 {
  %2 = alloca ptr, align 8
  store ptr %0, ptr %2, align 8
  %3 = load ptr, ptr %2, align 8
  store ptr getelementptr inbounds ({ [4 x ptr] }, ptr @_ZTVN7nanogui6ObjectE, i32 0, i32 0, i32 2), ptr %3, align 8
  %4 = getelementptr inbounds %"class.nanogui::Object", ptr %3, i32 0, i32 1
  call void @_ZNSt6atomicIiEC2Ei(ptr noundef nonnull align 4 dereferenceable(4) %4, i32 noundef 0) #6
  ret void
}

; Function Attrs: mustprogress uwtable
define hidden void @_ZN7nanogui7TextureC2ENS0_11PixelFormatENS0_15ComponentFormatERKNS_5ArrayIiLm2EEENS0_17InterpolationModeES7_NS0_8WrapModeEhhb(ptr noundef nonnull align 8 dereferenceable(40) %0, i8 noundef zeroext %1, i8 noundef zeroext %2, ptr noundef nonnull align 4 dereferenceable(8) %3, i8 noundef zeroext %4, i8 noundef zeroext %5, i8 noundef zeroext %6, i8 noundef zeroext %7, i8 noundef zeroext %8, i1 noundef zeroext %9) unnamed_addr #0 align 2 personality ptr @__gxx_personality_v0 {
  %11 = alloca ptr, align 8
  %12 = alloca i8, align 1
  %13 = alloca i8, align 1
  %14 = alloca ptr, align 8
  %15 = alloca i8, align 1
  %16 = alloca i8, align 1
  %17 = alloca i8, align 1
  %18 = alloca i8, align 1
  %19 = alloca i8, align 1
  %20 = alloca i8, align 1
  %21 = alloca ptr, align 8
  %22 = alloca i32, align 4
  store ptr %0, ptr %11, align 8
  store i8 %1, ptr %12, align 1
  store i8 %2, ptr %13, align 1
  store ptr %3, ptr %14, align 8
  store i8 %4, ptr %15, align 1
  store i8 %5, ptr %16, align 1
  store i8 %6, ptr %17, align 1
  store i8 %7, ptr %18, align 1
  store i8 %8, ptr %19, align 1
  %23 = zext i1 %9 to i8
  store i8 %23, ptr %20, align 1
  %24 = load ptr, ptr %11, align 8
  call void @_ZN7nanogui6ObjectC2Ev(ptr noundef nonnull align 8 dereferenceable(12) %24)
  store ptr getelementptr inbounds ({ [4 x ptr] }, ptr @_ZTVN7nanogui7TextureE, i32 0, i32 0, i32 2), ptr %24, align 8
  %25 = getelementptr inbounds %"class.nanogui::Texture", ptr %24, i32 0, i32 1
  %26 = load i8, ptr %12, align 1
  store i8 %26, ptr %25, align 4
  %27 = getelementptr inbounds %"class.nanogui::Texture", ptr %24, i32 0, i32 2
  %28 = load i8, ptr %13, align 1
  store i8 %28, ptr %27, align 1
  %29 = getelementptr inbounds %"class.nanogui::Texture", ptr %24, i32 0, i32 3
  %30 = load i8, ptr %15, align 1
  store i8 %30, ptr %29, align 2
  %31 = getelementptr inbounds %"class.nanogui::Texture", ptr %24, i32 0, i32 4
  %32 = load i8, ptr %16, align 1
  store i8 %32, ptr %31, align 1
  %33 = getelementptr inbounds %"class.nanogui::Texture", ptr %24, i32 0, i32 5
  %34 = load i8, ptr %17, align 1
  store i8 %34, ptr %33, align 8
  %35 = getelementptr inbounds %"class.nanogui::Texture", ptr %24, i32 0, i32 6
  %36 = load i8, ptr %18, align 1
  store i8 %36, ptr %35, align 1
  %37 = getelementptr inbounds %"class.nanogui::Texture", ptr %24, i32 0, i32 7
  %38 = load i8, ptr %19, align 1
  store i8 %38, ptr %37, align 2
  %39 = getelementptr inbounds %"class.nanogui::Texture", ptr %24, i32 0, i32 8
  %40 = load ptr, ptr %14, align 8
  call void @llvm.memcpy.p0.p0.i64(ptr align 4 %39, ptr align 4 %40, i64 8, i1 false)
  %41 = getelementptr inbounds %"class.nanogui::Texture", ptr %24, i32 0, i32 9
  %42 = load i8, ptr %20, align 1
  %43 = trunc i8 %42 to i1
  %44 = zext i1 %43 to i8
  store i8 %44, ptr %41, align 4
  %45 = getelementptr inbounds %"class.nanogui::Texture", ptr %24, i32 0, i32 10
  store i32 0, ptr %45, align 8
  %46 = getelementptr inbounds %"class.nanogui::Texture", ptr %24, i32 0, i32 11
  store i32 0, ptr %46, align 4
  invoke void @_ZN7nanogui7Texture4initEv(ptr noundef nonnull align 8 dereferenceable(40) %24)
          to label %47 unwind label %48

47:                                               ; preds = %10
  ret void

48:                                               ; preds = %10
  %49 = landingpad { ptr, i32 }
          cleanup
  %50 = extractvalue { ptr, i32 } %49, 0
  store ptr %50, ptr %21, align 8
  %51 = extractvalue { ptr, i32 } %49, 1
  store i32 %51, ptr %22, align 4
  call void @_ZN7nanogui6ObjectD2Ev(ptr noundef nonnull align 8 dereferenceable(12) %24) #6
  br label %52

52:                                               ; preds = %48
  %53 = load ptr, ptr %21, align 8
  %54 = load i32, ptr %22, align 4
  %55 = insertvalue { ptr, i32 } poison, ptr %53, 0
  %56 = insertvalue { ptr, i32 } %55, i32 %54, 1
  resume { ptr, i32 } %56
}