; Function Attrs: mustprogress uwtable
define hidden void @_ZN7nanogui7TextureC2ENS0_11PixelFormatENS0_15ComponentFormatERKNS_5ArrayIiLm2EEENS0_17InterpolationModeES7_NS0_8WrapModeEhhb(ptr noundef nonnull align 8 dereferenceable(40) %0, i8 noundef zeroext %1, i8 noundef zeroext %2, ptr nocapture noundef nonnull readonly align 4 dereferenceable(8) %3, i8 noundef zeroext %4, i8 noundef zeroext %5, i8 noundef zeroext %6, i8 noundef zeroext %7, i8 noundef zeroext %8, i1 noundef zeroext %9) unnamed_addr #0 align 2 personality ptr @__gxx_personality_v0 {
  %11 = zext i1 %9 to i8
  %12 = getelementptr inbounds i8, ptr %0, i64 8
  store i32 0, ptr %12, align 8
  store ptr getelementptr inbounds ({ [4 x ptr] }, ptr @_ZTVN7nanogui7TextureE, i64 0, i32 0, i64 2), ptr %0, align 8
  %13 = getelementptr inbounds i8, ptr %0, i64 12
  store i8 %1, ptr %13, align 4
  %14 = getelementptr inbounds i8, ptr %0, i64 13
  store i8 %2, ptr %14, align 1
  %15 = getelementptr inbounds i8, ptr %0, i64 14
  store i8 %4, ptr %15, align 2
  %16 = getelementptr inbounds i8, ptr %0, i64 15
  store i8 %5, ptr %16, align 1
  %17 = getelementptr inbounds i8, ptr %0, i64 16
  store i8 %6, ptr %17, align 8
  %18 = getelementptr inbounds i8, ptr %0, i64 17
  store i8 %7, ptr %18, align 1
  %19 = getelementptr inbounds i8, ptr %0, i64 18
  store i8 %8, ptr %19, align 2
  %20 = getelementptr inbounds i8, ptr %0, i64 20
  %21 = load i64, ptr %3, align 4
  store i64 %21, ptr %20, align 4
  %22 = getelementptr inbounds i8, ptr %0, i64 28
  store i8 %11, ptr %22, align 4
  %23 = getelementptr inbounds i8, ptr %0, i64 32
  store i32 0, ptr %23, align 8
  %24 = getelementptr inbounds i8, ptr %0, i64 36
  store i32 0, ptr %24, align 4
  invoke void @_ZN7nanogui7Texture4initEv(ptr noundef nonnull align 8 dereferenceable(40) %0)
          to label %25 unwind label %26

25:                                               ; preds = %10
  ret void

26:                                               ; preds = %10
  %27 = landingpad { ptr, i32 }
          cleanup
  tail call void @_ZN7nanogui6ObjectD2Ev(ptr noundef nonnull align 8 dereferenceable(12) %0) #5
  resume { ptr, i32 } %27
}